; Function Attrs: nofree norecurse nosync nounwind memory(argmem: read) uwtable
define internal i64 @pg_popcount_masked_slow(ptr noundef %0, i32 noundef %1, i8 noundef zeroext %2) #3 {
  %4 = zext i8 %2 to i64
  %5 = mul nuw i64 %4, 72340172838076673
  %6 = ptrtoint ptr %0 to i64
  %7 = add i64 %6, 7
  %8 = and i64 %7, -8
  %9 = inttoptr i64 %8 to ptr
  %10 = icmp eq ptr %0, %9
  %11 = icmp sgt i32 %1, 7
  %or.cond = and i1 %10, %11
  br i1 %or.cond, label %.lr.ph, label %.loopexit

.lr.ph:                                           ; preds = %3, %.lr.ph
  %.024 = phi ptr [ %12, %.lr.ph ], [ %0, %3 ]
  %.11623 = phi i64 [ %16, %.lr.ph ], [ 0, %3 ]
  %.11822 = phi i32 [ %17, %.lr.ph ], [ %1, %3 ]
  %12 = getelementptr inbounds nuw i8, ptr %.024, i64 8
  %13 = load i64, ptr %.024, align 8
  %14 = and i64 %13, %5
  %15 = tail call range(i64 0, 65) i64 @llvm.ctpop.i64(i64 %14)
  %16 = add i64 %15, %.11623
  %17 = add nsw i32 %.11822, -8
  %18 = icmp samesign ugt i32 %.11822, 15
  br i1 %18, label %.lr.ph, label %.loopexit, !llvm.loop !15

.loopexit:                                        ; preds = %.lr.ph, %3
  %.017 = phi i32 [ %1, %3 ], [ %17, %.lr.ph ]
  %.015 = phi i64 [ 0, %3 ], [ %16, %.lr.ph ]
  %.014 = phi ptr [ %0, %3 ], [ %12, %.lr.ph ]
  %.not27 = icmp eq i32 %.017, 0
  br i1 %.not27, label %._crit_edge, label %.lr.ph31

.lr.ph31:                                         ; preds = %.loopexit, %.lr.ph31
  %.130 = phi ptr [ %20, %.lr.ph31 ], [ %.014, %.loopexit ]
  %.229 = phi i64 [ %27, %.lr.ph31 ], [ %.015, %.loopexit ]
  %.21928 = phi i32 [ %19, %.lr.ph31 ], [ %.017, %.loopexit ]
  %19 = add i32 %.21928, -1
  %20 = getelementptr inbounds nuw i8, ptr %.130, i64 1
  %21 = load i8, ptr %.130, align 1
  %22 = and i8 %21, %2
  %23 = zext i8 %22 to i64
  %24 = getelementptr inbounds nuw [256 x i8], ptr @pg_number_of_ones, i64 0, i64 %23
  %25 = load i8, ptr %24, align 1
  %26 = zext i8 %25 to i64
  %27 = add i64 %.229, %26
  %.not = icmp eq i32 %19, 0
  br i1 %.not, label %._crit_edge, label %.lr.ph31, !llvm.loop !16

._crit_edge:                                      ; preds = %.lr.ph31, %.loopexit
  %.2.lcssa = phi i64 [ %.015, %.loopexit ], [ %27, %.lr.ph31 ]
  ret i64 %.2.lcssa
}